target datalayout = "e-m:e-p270:32:32-p271:32:32-p272:64:64-i64:64-i128:128-f80:128-n8:16:32:64-S128"
target triple = "x86_64-pc-linux-gnu"

@.str.48 = private unnamed_addr constant [26 x i8] c"too many nested functions\00", align 1
@.str.49 = private unnamed_addr constant [37 x i8] c"reader function must return a string\00", align 1

; Function Attrs: nounwind uwtable
define internal ptr @generic_reader(ptr noundef %0, ptr noundef %1, ptr noundef %2) #0 {
  %4 = alloca ptr, align 8
  %5 = alloca ptr, align 8
  %6 = alloca ptr, align 8
  %7 = alloca ptr, align 8
  store ptr %0, ptr %5, align 8, !tbaa !4
  store ptr %1, ptr %6, align 8, !tbaa !11
  store ptr %2, ptr %7, align 8, !tbaa !27
  %8 = load ptr, ptr %5, align 8, !tbaa !4
  call void @luaL_checkstack(ptr noundef %8, i32 noundef 2, ptr noundef @.str.48)
  %9 = load ptr, ptr %5, align 8, !tbaa !4
  call void @lua_pushvalue(ptr noundef %9, i32 noundef 1)
  %10 = load ptr, ptr %5, align 8, !tbaa !4
  call void @lua_call(ptr noundef %10, i32 noundef 0, i32 noundef 1)
  %11 = load ptr, ptr %5, align 8, !tbaa !4
  %12 = call i32 @lua_type(ptr noundef %11, i32 noundef -1)
  %13 = icmp eq i32 %12, 0
  br i1 %13, label %14, label %16

14:                                               ; preds = %3
  %15 = load ptr, ptr %7, align 8, !tbaa !27
  store i64 0, ptr %15, align 8, !tbaa !14
  store ptr null, ptr %4, align 8
  br label %30

16:                                               ; preds = %3
  %17 = load ptr, ptr %5, align 8, !tbaa !4
  %18 = call i32 @lua_isstring(ptr noundef %17, i32 noundef -1)
  %19 = icmp ne i32 %18, 0
  br i1 %19, label %20, label %25

20:                                               ; preds = %16
  %21 = load ptr, ptr %5, align 8, !tbaa !4
  call void @lua_replace(ptr noundef %21, i32 noundef 3)
  %22 = load ptr, ptr %5, align 8, !tbaa !4
  %23 = load ptr, ptr %7, align 8, !tbaa !27
  %24 = call ptr @lua_tolstring(ptr noundef %22, i32 noundef 3, ptr noundef %23)
  store ptr %24, ptr %4, align 8
  br label %30

25:                                               ; preds = %16
  %26 = load ptr, ptr %5, align 8, !tbaa !4
  %27 = call i32 (ptr, ptr, ...) @luaL_error(ptr noundef %26, ptr noundef @.str.49)
  br label %28

28:                                               ; preds = %25
  br label %29

29:                                               ; preds = %28
  store ptr null, ptr %4, align 8
  br label %30

30:                                               ; preds = %29, %20, %14
  %31 = load ptr, ptr %4, align 8
  ret ptr %31
}