; Function Attrs: nounwind uwtable
define internal ptr @generic_reader(ptr noundef %0, ptr readnone captures(none) %1, ptr noundef %2) #0 {
  tail call void @luaL_checkstack(ptr noundef %0, i32 noundef 2, ptr noundef nonnull @.str.48) #8
  tail call void @lua_pushvalue(ptr noundef %0, i32 noundef 1) #8
  tail call void @lua_call(ptr noundef %0, i32 noundef 0, i32 noundef 1) #8
  %4 = tail call i32 @lua_type(ptr noundef %0, i32 noundef -1) #8
  %5 = icmp eq i32 %4, 0
  br i1 %5, label %6, label %7

6:                                                ; preds = %3
  store i64 0, ptr %2, align 8, !tbaa !8
  br label %13

7:                                                ; preds = %3
  %8 = tail call i32 @lua_isstring(ptr noundef %0, i32 noundef -1) #8
  %.not = icmp eq i32 %8, 0
  br i1 %.not, label %11, label %9

9:                                                ; preds = %7
  tail call void @lua_replace(ptr noundef %0, i32 noundef 3) #8
  %10 = tail call ptr @lua_tolstring(ptr noundef %0, i32 noundef 3, ptr noundef %2) #8
  br label %13

11:                                               ; preds = %7
  %12 = tail call i32 (ptr, ptr, ...) @luaL_error(ptr noundef %0, ptr noundef nonnull @.str.49) #8
  br label %13

13:                                               ; preds = %11, %9, %6
  %.0 = phi ptr [ null, %6 ], [ %10, %9 ], [ null, %11 ]
  ret ptr %.0
}